; Function Attrs: mustprogress nounwind uwtable
define void @_ZN3zmq12radix_tree_tD2Ev(ptr noundef nonnull readonly align 8 captures(none) dereferenceable(16) %0) unnamed_addr #12 align 2 personality ptr @__gxx_personality_v0 {
  %.sroa.0.0.copyload = load ptr, ptr %0, align 8, !tbaa !17
  invoke fastcc void @_ZL10free_nodes6node_t(ptr %.sroa.0.0.copyload)
          to label %2 unwind label %3

2:                                                ; preds = %1
  ret void

3:                                                ; preds = %1
  %4 = landingpad { ptr, i32 }
          catch ptr null
  %5 = extractvalue { ptr, i32 } %4, 0
  tail call void @__clang_call_terminate(ptr %5) #26
  unreachable
}